; Function Attrs: mustprogress nounwind uwtable
define internal void @_ZN7openvdb5v11_012_GLOBAL__N_118LockedGridRegistryD2Ev(ptr noundef nonnull align 8 dereferenceable(88) %this) unnamed_addr #6 align 2 personality ptr @__gxx_personality_v0 {
entry:
  %mMap = getelementptr inbounds i8, ptr %this, i64 40
  %_M_parent.i.i.i.i = getelementptr inbounds i8, ptr %this, i64 56
  %0 = load ptr, ptr %_M_parent.i.i.i.i, align 8
  invoke void @_ZNSt8_Rb_treeINSt7__cxx1112basic_stringIcSt11char_traitsIcESaIcEEESt4pairIKS5_PFSt10shared_ptrIN7openvdb5v11_08GridBaseEEvEESt10_Select1stISF_ESt4lessIS5_ESaISF_EE8_M_eraseEPSt13_Rb_tree_nodeISF_E(ptr noundef nonnull align 8 dereferenceable(48) %mMap, ptr noundef %0)
          to label %_ZNSt3mapINSt7__cxx1112basic_stringIcSt11char_traitsIcESaIcEEEPFSt10shared_ptrIN7openvdb5v11_08GridBaseEEvESt4lessIS5_ESaISt4pairIKS5_SC_EEED2Ev.exit unwind label %terminate.lpad.i.i

terminate.lpad.i.i:                               ; preds = %entry
  %1 = landingpad { ptr, i32 }
          catch ptr null
  %2 = extractvalue { ptr, i32 } %1, 0
  tail call void @__clang_call_terminate(ptr %2) #20
  unreachable

_ZNSt3mapINSt7__cxx1112basic_stringIcSt11char_traitsIcESaIcEEEPFSt10shared_ptrIN7openvdb5v11_08GridBaseEEvESt4lessIS5_ESaISt4pairIKS5_SC_EEED2Ev.exit: ; preds = %entry
  ret void
}